; Function Attrs: mustprogress nofree norecurse nosync nounwind null_pointer_is_valid sspstrong willreturn memory(none) uwtable
define internal range(i32 0, 2) i32 @nlm_msg_res_matched_equal(ptr noundef %0, ptr noundef %1) #5 {
  %3 = ptrtoint ptr %0 to i64
  %4 = trunc i64 %3 to i32
  %5 = ptrtoint ptr %1 to i64
  %6 = trunc i64 %5 to i32
  %7 = icmp eq i32 %4, %6
  %8 = zext i1 %7 to i32
  ret i32 %8
}